target datalayout = "e-m:e-p270:32:32-p271:32:32-p272:64:64-i64:64-i128:128-f80:128-n8:16:32:64-S128"
target triple = "x86_64-pc-linux-gnu"

; Function Attrs: mustprogress uwtable
define void @_ZN8nanobind6detail16getitem_or_raiseEP7_objectlPS2_(ptr noundef %0, i64 noundef %1, ptr noundef %2) #12 {
  %4 = alloca ptr, align 8
  %5 = alloca i64, align 8
  %6 = alloca ptr, align 8
  %7 = alloca ptr, align 8
  store ptr %0, ptr %4, align 8
  store i64 %1, ptr %5, align 8
  store ptr %2, ptr %6, align 8
  %8 = load ptr, ptr %6, align 8
  %9 = load ptr, ptr %8, align 8
  %10 = icmp ne ptr %9, null
  br i1 %10, label %11, label %12

11:                                               ; preds = %3
  br label %22

12:                                               ; preds = %3
  call void @llvm.lifetime.start.p0(i64 8, ptr %7) #20
  %13 = load ptr, ptr %4, align 8
  %14 = load i64, ptr %5, align 8
  %15 = call ptr @PySequence_GetItem(ptr noundef %13, i64 noundef %14)
  store ptr %15, ptr %7, align 8
  %16 = load ptr, ptr %7, align 8
  %17 = icmp ne ptr %16, null
  br i1 %17, label %19, label %18

18:                                               ; preds = %12
  call void @_ZN8nanobind6detail18raise_python_errorEv() #21
  unreachable

19:                                               ; preds = %12
  %20 = load ptr, ptr %7, align 8
  %21 = load ptr, ptr %6, align 8
  store ptr %20, ptr %21, align 8
  call void @llvm.lifetime.end.p0(i64 8, ptr %7) #20
  br label %22

22:                                               ; preds = %19, %11
  ret void
}